; Function Attrs: nounwind uwtable
define internal fastcc zeroext i1 @_equalMergeStmt(ptr noundef nonnull readonly captures(none) %0, ptr noundef nonnull readonly captures(none) %1) unnamed_addr #0 {
  %3 = getelementptr inbounds nuw i8, ptr %0, i64 8
  %4 = load ptr, ptr %3, align 8
  %5 = getelementptr inbounds nuw i8, ptr %1, i64 8
  %6 = load ptr, ptr %5, align 8
  %7 = tail call zeroext i1 @equal(ptr noundef %4, ptr noundef %6)
  br i1 %7, label %8, label %38

8:                                                ; preds = %2
  %9 = getelementptr inbounds nuw i8, ptr %0, i64 16
  %10 = load ptr, ptr %9, align 8
  %11 = getelementptr inbounds nuw i8, ptr %1, i64 16
  %12 = load ptr, ptr %11, align 8
  %13 = tail call zeroext i1 @equal(ptr noundef %10, ptr noundef %12)
  br i1 %13, label %14, label %38

14:                                               ; preds = %8
  %15 = getelementptr inbounds nuw i8, ptr %0, i64 24
  %16 = load ptr, ptr %15, align 8
  %17 = getelementptr inbounds nuw i8, ptr %1, i64 24
  %18 = load ptr, ptr %17, align 8
  %19 = tail call zeroext i1 @equal(ptr noundef %16, ptr noundef %18)
  br i1 %19, label %20, label %38

20:                                               ; preds = %14
  %21 = getelementptr inbounds nuw i8, ptr %0, i64 32
  %22 = load ptr, ptr %21, align 8
  %23 = getelementptr inbounds nuw i8, ptr %1, i64 32
  %24 = load ptr, ptr %23, align 8
  %25 = tail call zeroext i1 @equal(ptr noundef %22, ptr noundef %24)
  br i1 %25, label %26, label %38

26:                                               ; preds = %20
  %27 = getelementptr inbounds nuw i8, ptr %0, i64 40
  %28 = load ptr, ptr %27, align 8
  %29 = getelementptr inbounds nuw i8, ptr %1, i64 40
  %30 = load ptr, ptr %29, align 8
  %31 = tail call zeroext i1 @equal(ptr noundef %28, ptr noundef %30)
  br i1 %31, label %32, label %38

32:                                               ; preds = %26
  %33 = getelementptr inbounds nuw i8, ptr %0, i64 48
  %34 = load ptr, ptr %33, align 8
  %35 = getelementptr inbounds nuw i8, ptr %1, i64 48
  %36 = load ptr, ptr %35, align 8
  %37 = tail call zeroext i1 @equal(ptr noundef %34, ptr noundef %36)
  br label %38

38:                                               ; preds = %32, %26, %20, %14, %8, %2
  %.0 = phi i1 [ false, %2 ], [ false, %8 ], [ false, %14 ], [ false, %20 ], [ false, %26 ], [ %37, %32 ]
  ret i1 %.0
}